
xor.o:     file format elf64-x86-64


Disassembly of section .init:

0000000000001000 <_init>:
    1000:	f3 0f 1e fa          	endbr64
    1004:	48 83 ec 08          	sub    $0x8,%rsp
    1008:	48 8b 05 c1 2f 00 00 	mov    0x2fc1(%rip),%rax        # 3fd0 <__gmon_start__@Base>
    100f:	48 85 c0             	test   %rax,%rax
    1012:	74 02                	je     1016 <_init+0x16>
    1014:	ff d0                	call   *%rax
    1016:	48 83 c4 08          	add    $0x8,%rsp
    101a:	c3                   	ret

Disassembly of section .plt:

0000000000001020 <printf@plt-0x10>:
    1020:	ff 35 ca 2f 00 00    	push   0x2fca(%rip)        # 3ff0 <_GLOBAL_OFFSET_TABLE_+0x8>
    1026:	ff 25 cc 2f 00 00    	jmp    *0x2fcc(%rip)        # 3ff8 <_GLOBAL_OFFSET_TABLE_+0x10>
    102c:	0f 1f 40 00          	nopl   0x0(%rax)

0000000000001030 <printf@plt>:
    1030:	ff 25 ca 2f 00 00    	jmp    *0x2fca(%rip)        # 4000 <printf@GLIBC_2.2.5>
    1036:	68 00 00 00 00       	push   $0x0
    103b:	e9 e0 ff ff ff       	jmp    1020 <_init+0x20>

0000000000001040 <__isoc99_scanf@plt>:
    1040:	ff 25 c2 2f 00 00    	jmp    *0x2fc2(%rip)        # 4008 <__isoc99_scanf@GLIBC_2.7>
    1046:	68 01 00 00 00       	push   $0x1
    104b:	e9 d0 ff ff ff       	jmp    1020 <_init+0x20>

Disassembly of section .text:

0000000000001050 <_start>:
    1050:	f3 0f 1e fa          	endbr64
    1054:	31 ed                	xor    %ebp,%ebp
    1056:	49 89 d1             	mov    %rdx,%r9
    1059:	5e                   	pop    %rsi
    105a:	48 89 e2             	mov    %rsp,%rdx
    105d:	48 83 e4 f0          	and    $0xfffffffffffffff0,%rsp
    1061:	50                   	push   %rax
    1062:	54                   	push   %rsp
    1063:	45 31 c0             	xor    %r8d,%r8d
    1066:	31 c9                	xor    %ecx,%ecx
    1068:	48 8d 3d da 00 00 00 	lea    0xda(%rip),%rdi        # 1149 <main>
    106f:	ff 15 4b 2f 00 00    	call   *0x2f4b(%rip)        # 3fc0 <__libc_start_main@GLIBC_2.34>
    1075:	f4                   	hlt
    1076:	66 2e 0f 1f 84 00 00 	cs nopw 0x0(%rax,%rax,1)
    107d:	00 00 00 

0000000000001080 <deregister_tm_clones>:
    1080:	48 8d 3d 99 2f 00 00 	lea    0x2f99(%rip),%rdi        # 4020 <__TMC_END__>
    1087:	48 8d 05 92 2f 00 00 	lea    0x2f92(%rip),%rax        # 4020 <__TMC_END__>
    108e:	48 39 f8             	cmp    %rdi,%rax
    1091:	74 15                	je     10a8 <deregister_tm_clones+0x28>
    1093:	48 8b 05 2e 2f 00 00 	mov    0x2f2e(%rip),%rax        # 3fc8 <_ITM_deregisterTMCloneTable@Base>
    109a:	48 85 c0             	test   %rax,%rax
    109d:	74 09                	je     10a8 <deregister_tm_clones+0x28>
    109f:	ff e0                	jmp    *%rax
    10a1:	0f 1f 80 00 00 00 00 	nopl   0x0(%rax)
    10a8:	c3                   	ret
    10a9:	0f 1f 80 00 00 00 00 	nopl   0x0(%rax)

00000000000010b0 <register_tm_clones>:
    10b0:	48 8d 3d 69 2f 00 00 	lea    0x2f69(%rip),%rdi        # 4020 <__TMC_END__>
    10b7:	48 8d 35 62 2f 00 00 	lea    0x2f62(%rip),%rsi        # 4020 <__TMC_END__>
    10be:	48 29 fe             	sub    %rdi,%rsi
    10c1:	48 89 f0             	mov    %rsi,%rax
    10c4:	48 c1 ee 3f          	shr    $0x3f,%rsi
    10c8:	48 c1 f8 03          	sar    $0x3,%rax
    10cc:	48 01 c6             	add    %rax,%rsi
    10cf:	48 d1 fe             	sar    %rsi
    10d2:	74 14                	je     10e8 <register_tm_clones+0x38>
    10d4:	48 8b 05 fd 2e 00 00 	mov    0x2efd(%rip),%rax        # 3fd8 <_ITM_registerTMCloneTable@Base>
    10db:	48 85 c0             	test   %rax,%rax
    10de:	74 08                	je     10e8 <register_tm_clones+0x38>
    10e0:	ff e0                	jmp    *%rax
    10e2:	66 0f 1f 44 00 00    	nopw   0x0(%rax,%rax,1)
    10e8:	c3                   	ret
    10e9:	0f 1f 80 00 00 00 00 	nopl   0x0(%rax)

00000000000010f0 <__do_global_dtors_aux>:
    10f0:	f3 0f 1e fa          	endbr64
    10f4:	80 3d 25 2f 00 00 00 	cmpb   $0x0,0x2f25(%rip)        # 4020 <__TMC_END__>
    10fb:	75 33                	jne    1130 <__do_global_dtors_aux+0x40>
    10fd:	55                   	push   %rbp
    10fe:	48 83 3d da 2e 00 00 	cmpq   $0x0,0x2eda(%rip)        # 3fe0 <__cxa_finalize@GLIBC_2.2.5>
    1105:	00 
    1106:	48 89 e5             	mov    %rsp,%rbp
    1109:	74 0d                	je     1118 <__do_global_dtors_aux+0x28>
    110b:	48 8b 3d 06 2f 00 00 	mov    0x2f06(%rip),%rdi        # 4018 <__dso_handle>
    1112:	ff 15 c8 2e 00 00    	call   *0x2ec8(%rip)        # 3fe0 <__cxa_finalize@GLIBC_2.2.5>
    1118:	e8 63 ff ff ff       	call   1080 <deregister_tm_clones>
    111d:	c6 05 fc 2e 00 00 01 	movb   $0x1,0x2efc(%rip)        # 4020 <__TMC_END__>
    1124:	5d                   	pop    %rbp
    1125:	c3                   	ret
    1126:	66 2e 0f 1f 84 00 00 	cs nopw 0x0(%rax,%rax,1)
    112d:	00 00 00 
    1130:	c3                   	ret
    1131:	66 66 2e 0f 1f 84 00 	data16 cs nopw 0x0(%rax,%rax,1)
    1138:	00 00 00 00 
    113c:	0f 1f 40 00          	nopl   0x0(%rax)

0000000000001140 <frame_dummy>:
    1140:	f3 0f 1e fa          	endbr64
    1144:	e9 67 ff ff ff       	jmp    10b0 <register_tm_clones>

0000000000001149 <main>:
    1149:	55                   	push   %rbp
    114a:	48 89 e5             	mov    %rsp,%rbp
    114d:	48 8d 05 d4 2e 00 00 	lea    0x2ed4(%rip),%rax        # 4028 <n>
    1154:	48 89 c6             	mov    %rax,%rsi
    1157:	48 8d 05 a6 0e 00 00 	lea    0xea6(%rip),%rax        # 2004 <_IO_stdin_used+0x4>
    115e:	48 89 c7             	mov    %rax,%rdi
    1161:	b8 00 00 00 00       	mov    $0x0,%eax
    1166:	e8 d5 fe ff ff       	call   1040 <__isoc99_scanf@plt>
    116b:	c7 05 af 2e 00 00 00 	movl   $0x0,0x2eaf(%rip)        # 4024 <i>
    1172:	00 00 00 
    1175:	eb 23                	jmp    119a <main+0x51>
    1177:	8b 15 af 2e 00 00    	mov    0x2eaf(%rip),%edx        # 402c <cnt>
    117d:	8b 05 a1 2e 00 00    	mov    0x2ea1(%rip),%eax        # 4024 <i>
    1183:	01 d0                	add    %edx,%eax
    1185:	89 05 a1 2e 00 00    	mov    %eax,0x2ea1(%rip)        # 402c <cnt>
    118b:	8b 05 93 2e 00 00    	mov    0x2e93(%rip),%eax        # 4024 <i>
    1191:	83 c0 01             	add    $0x1,%eax
    1194:	89 05 8a 2e 00 00    	mov    %eax,0x2e8a(%rip)        # 4024 <i>
    119a:	8b 15 84 2e 00 00    	mov    0x2e84(%rip),%edx        # 4024 <i>
    11a0:	8b 05 82 2e 00 00    	mov    0x2e82(%rip),%eax        # 4028 <n>
    11a6:	39 c2                	cmp    %eax,%edx
    11a8:	7c cd                	jl     1177 <main+0x2e>
    11aa:	8b 05 7c 2e 00 00    	mov    0x2e7c(%rip),%eax        # 402c <cnt>
    11b0:	89 c6                	mov    %eax,%esi
    11b2:	48 8d 05 4e 0e 00 00 	lea    0xe4e(%rip),%rax        # 2007 <_IO_stdin_used+0x7>
    11b9:	48 89 c7             	mov    %rax,%rdi
    11bc:	b8 00 00 00 00       	mov    $0x0,%eax
    11c1:	e8 6a fe ff ff       	call   1030 <printf@plt>
    11c6:	b8 00 00 00 00       	mov    $0x0,%eax
    11cb:	5d                   	pop    %rbp
    11cc:	c3                   	ret

Disassembly of section .fini:

00000000000011d0 <_fini>:
    11d0:	f3 0f 1e fa          	endbr64
    11d4:	48 83 ec 08          	sub    $0x8,%rsp
    11d8:	48 83 c4 08          	add    $0x8,%rsp
    11dc:	c3                   	ret
